Certificate:
    Data:
        Version: 3 (0x2)
        Serial Number: 1 (0x1)
        Signature Algorithm: sha256WithRSAEncryption
        Issuer: CN=devcert
        Validity
            Not Before: Aug  6 21:58:33 2021 GMT
            Not After : Nov  9 21:58:33 2023 GMT
        Subject: CN=localhost
        Subject Public Key Info:
            Public Key Algorithm: rsaEncryption
                RSA Public-Key: (2048 bit)
                Modulus:
                    00:e2:b2:21:81:4e:c9:4c:59:e7:c8:3b:0c:b0:b8:
                    9b:79:27:ac:9d:a7:c8:16:54:f0:95:f0:a5:cb:67:
                    53:2d:e5:59:81:e7:32:fa:a1:83:86:f8:5a:59:29:
                    41:49:d6:18:62:ed:c3:2f:3c:17:4c:df:3b:18:32:
                    df:8a:55:c5:ac:1e:49:a0:a6:17:30:ba:14:1f:85:
                    d3:be:12:d2:64:fe:82:c9:be:48:e4:3e:79:13:6e:
                    a6:35:b6:46:df:cd:56:7f:24:0c:1c:2f:9b:16:8c:
                    b5:db:47:70:81:12:a8:7a:c2:e8:f2:a0:50:d4:e6:
                    20:99:3c:8a:83:ac:95:bd:9d:b4:9a:15:d6:7d:ee:
                    56:56:73:d8:1a:b0:bc:76:d3:ff:1c:9b:f3:be:e7:
                    dc:f9:d2:ed:87:ec:58:d4:1f:07:9c:b5:cc:38:0c:
                    88:43:da:c6:b4:7e:1d:75:ba:de:15:a1:50:c6:d7:
                    d2:98:73:21:cd:78:83:f5:18:32:93:1f:5f:d6:d7:
                    06:7b:3d:a0:07:09:52:8b:1c:2c:11:74:7e:9a:28:
                    d2:3e:7a:16:52:a2:26:a0:0b:75:a6:0c:9a:45:8d:
                    80:bc:e0:9d:6f:76:50:fc:7a:ce:95:f0:0d:9c:d3:
                    94:a4:ad:e9:f6:04:33:37:0e:13:ec:92:fc:52:a7:
                    a9:cd
                Exponent: 65537 (0x10001)
        X509v3 extensions:
            X509v3 Basic Constraints: critical
                CA:FALSE
            X509v3 Subject Key Identifier: 
                78:63:42:1A:BA:70:D6:98:63:B8:C7:A3:77:7A:06:D5:88:94:22:A9
            X509v3 Authority Key Identifier: 
                keyid:06:2B:0B:F0:D3:6B:E0:E3:F9:C1:5F:26:96:8F:ED:CF:CB:F1:76:95
                DirName:/CN=devcert
                serial:5B:1B:F2:D3:CA:11:2D:CD:3D:59:24:C9:D3:C2:85:07:68:83:2D:00

            X509v3 Key Usage: critical
                Digital Signature, Key Encipherment
            X509v3 Extended Key Usage: 
                TLS Web Server Authentication
            X509v3 Subject Alternative Name: 
                DNS:localhost, DNS:*.localhost
    Signature Algorithm: sha256WithRSAEncryption
         6a:27:a7:52:94:45:d9:a4:1c:2f:09:b0:38:03:3b:c0:bb:43:
         ea:a0:ac:b5:34:05:09:0e:fa:b2:36:4e:ab:32:b5:c9:17:e2:
         72:a4:db:44:8a:01:7b:d7:b4:8f:57:f7:84:5c:b9:c9:8e:9a:
         62:6b:59:e3:f6:dd:67:90:76:68:f9:d6:a5:56:a1:c5:64:89:
         be:67:ef:25:6e:0a:4e:19:f9:04:d4:08:41:29:f6:a9:d1:28:
         33:ca:3d:2a:55:ad:23:2b:be:b1:8f:15:1b:cb:b3:d6:6f:23:
         ce:e0:4b:97:15:92:0d:db:2f:33:4c:4a:98:d9:4f:8a:43:cf:
         06:5e:ef:f9:e4:ac:dc:0e:5d:ec:54:10:88:32:ef:7f:86:df:
         5b:2b:c3:8b:c5:88:c5:02:ee:6c:c2:d6:ae:08:2c:6a:a5:8b:
         0f:86:00:2b:2f:0a:b4:7e:a0:c8:d4:49:f8:b1:1d:bd:f1:af:
         70:30:67:a7:e0:85:67:cc:49:ec:7a:3c:ac:3d:3f:aa:7d:e4:
         b8:8f:b4:60:39:12:6e:e7:56:fc:c6:af:0c:0f:d4:f5:c4:3e:
         a8:1a:f8:46:63:ed:20:7d:0c:31:0d:64:3d:03:56:c1:1c:c4:
         ea:51:cb:a0:69:49:c2:3f:28:0b:d0:20:33:88:2a:3f:56:72:
         4d:7d:0e:b1
-----BEGIN CERTIFICATE-----
MIIDaTCCAlGgAwIBAgIBATANBgkqhkiG9w0BAQsFADASMRAwDgYDVQQDDAdkZXZj
ZXJ0MB4XDTIxMDgwNjIxNTgzM1oXDTIzMTEwOTIxNTgzM1owFDESMBAGA1UEAwwJ
bG9jYWxob3N0MIIBIjANBgkqhkiG9w0BAQEFAAOCAQ8AMIIBCgKCAQEA4rIhgU7J
TFnnyDsMsLibeSesnafIFlTwlfCly2dTLeVZgecy+qGDhvhaWSlBSdYYYu3DLzwX
TN87GDLfilXFrB5JoKYXMLoUH4XTvhLSZP6Cyb5I5D55E26mNbZG381WfyQMHC+b
Foy120dwgRKoesLo8qBQ1OYgmTyKg6yVvZ20mhXWfe5WVnPYGrC8dtP/HJvzvufc
+dLth+xY1B8HnLXMOAyIQ9rGtH4ddbreFaFQxtfSmHMhzXiD9Rgykx9f1tcGez2g
BwlSixwsEXR+mijSPnoWUqImoAt1pgyaRY2AvOCdb3ZQ/HrOlfANnNOUpK3p9gQz
Nw4T7JL8UqepzQIDAQABo4HHMIHEMAwGA1UdEwEB/wQCMAAwHQYDVR0OBBYEFHhj
Qhq6cNaYY7jHo3d6BtWIlCKpME0GA1UdIwRGMESAFAYrC/DTa+Dj+cFfJpaP7c/L
8XaVoRakFDASMRAwDgYDVQQDDAdkZXZjZXJ0ghRbG/LTyhEtzT1ZJMnTwoUHaIMt
ADAOBgNVHQ8BAf8EBAMCBaAwEwYDVR0lBAwwCgYIKwYBBQUHAwEwIQYDVR0RBBow
GIIJbG9jYWxob3N0ggsqLmxvY2FsaG9zdDANBgkqhkiG9w0BAQsFAAOCAQEAaien
UpRF2aQcLwmwOAM7wLtD6qCstTQFCQ76sjZOqzK1yRficqTbRIoBe9e0j1f3hFy5
yY6aYmtZ4/bdZ5B2aPnWpVahxWSJvmfvJW4KThn5BNQIQSn2qdEoM8o9KlWtIyu+
sY8VG8uz1m8jzuBLlxWSDdsvM0xKmNlPikPPBl7v+eSs3A5d7FQQiDLvf4bfWyvD
i8WIxQLubMLWrggsaqWLD4YAKy8KtH6gyNRJ+LEdvfGvcDBnp+CFZ8xJ7Ho8rD0/
qn3kuI+0YDkSbudW/MavDA/U9cQ+qBr4RmPtIH0MMQ1kPQNWwRzE6lHLoGlJwj8o
C9AgM4gqP1ZyTX0OsQ==
-----END CERTIFICATE-----
